// Annotated Flatbuffer Binary
//
// Schema file: sunspec_model_definition.fbs
// Binary file: models/flatbuffer/binary/model_1.bin

header:
  +0x0000 | 0C 00 00 00             | UOffset32  | 0x0000000C (12) Loc: 0x000C   | offset to root table `SunspecModelDef`

vtable (SunspecModelDef):
  +0x0004 | 08 00                   | uint16_t   | 0x0008 (8)                    | size of this vtable
  +0x0006 | 0E 00                   | uint16_t   | 0x000E (14)                   | size of referring table
  +0x0008 | 06 00                   | VOffset16  | 0x0006 (6)                    | offset to field `id` (id: 0)
  +0x000A | 08 00                   | VOffset16  | 0x0008 (8)                    | offset to field `group` (id: 1)

root_table (SunspecModelDef):
  +0x000C | 08 00 00 00             | SOffset32  | 0x00000008 (8) Loc: 0x0004    | offset to vtable
  +0x0010 | 00 00                   | uint8_t[2] | ..                            | padding
  +0x0012 | 01 00                   | uint16_t   | 0x0001 (1)                    | table field `id` (UShort)
  +0x0014 | 18 00 00 00             | UOffset32  | 0x00000018 (24) Loc: 0x002C   | offset to field `group` (table)
  +0x0018 | 00 00                   | uint8_t[2] | ..                            | padding

vtable (SunspecGroupPointDef):
  +0x001A | 12 00                   | uint16_t   | 0x0012 (18)                   | size of this vtable
  +0x001C | 14 00                   | uint16_t   | 0x0014 (20)                   | size of referring table
  +0x001E | 04 00                   | VOffset16  | 0x0004 (4)                    | offset to field `id` (id: 0)
  +0x0020 | 00 00                   | VOffset16  | 0x0000 (0)                    | offset to field `type` (id: 1) <defaults to 0> (UByte)
  +0x0022 | 00 00                   | VOffset16  | 0x0000 (0)                    | offset to field `count` (id: 2) <defaults to 1> (UShort)
  +0x0024 | 00 00                   | VOffset16  | 0x0000 (0)                    | offset to field `count_point_id` (id: 3) <null> (String)
  +0x0026 | 08 00                   | VOffset16  | 0x0008 (8)                    | offset to field `points` (id: 4)
  +0x0028 | 0C 00                   | VOffset16  | 0x000C (12)                   | offset to field `groups` (id: 5)
  +0x002A | 10 00                   | VOffset16  | 0x0010 (16)                   | offset to field `label` (id: 6)

table (SunspecGroupPointDef):
  +0x002C | 12 00 00 00             | SOffset32  | 0x00000012 (18) Loc: 0x001A   | offset to vtable
  +0x0030 | 48 02 00 00             | UOffset32  | 0x00000248 (584) Loc: 0x0278  | offset to field `id` (string)
  +0x0034 | 1C 00 00 00             | UOffset32  | 0x0000001C (28) Loc: 0x0050   | offset to field `points` (vector)
  +0x0038 | 14 00 00 00             | UOffset32  | 0x00000014 (20) Loc: 0x004C   | offset to field `groups` (vector)
  +0x003C | 04 00 00 00             | UOffset32  | 0x00000004 (4) Loc: 0x0040    | offset to field `label` (string)

string (SunspecGroupPointDef.label):
  +0x0040 | 06 00 00 00             | uint32_t   | 0x00000006 (6)                | length of string
  +0x0044 | 43 6F 6D 6D 6F 6E       | char[6]    | Common                        | string literal
  +0x004A | 00                      | char       | 0x00 (0)                      | string terminator

vector (SunspecGroupPointDef.groups):
  +0x004C | 00 00 00 00             | uint32_t   | 0x00000000 (0)                | length of vector (# items)

vector (SunspecGroupPointDef.points):
  +0x0050 | 09 00 00 00             | uint32_t   | 0x00000009 (9)                | length of vector (# items)
  +0x0054 | F8 01 00 00             | UOffset32  | 0x000001F8 (504) Loc: 0x024C  | offset to table[0]
  +0x0058 | A8 01 00 00             | UOffset32  | 0x000001A8 (424) Loc: 0x0200  | offset to table[1]
  +0x005C | 6C 01 00 00             | UOffset32  | 0x0000016C (364) Loc: 0x01C8  | offset to table[2]
  +0x0060 | 3C 01 00 00             | UOffset32  | 0x0000013C (316) Loc: 0x019C  | offset to table[3]
  +0x0064 | 0C 01 00 00             | UOffset32  | 0x0000010C (268) Loc: 0x0170  | offset to table[4]
  +0x0068 | C0 00 00 00             | UOffset32  | 0x000000C0 (192) Loc: 0x0128  | offset to table[5]
  +0x006C | 88 00 00 00             | UOffset32  | 0x00000088 (136) Loc: 0x00F4  | offset to table[6]
  +0x0070 | 50 00 00 00             | UOffset32  | 0x00000050 (80) Loc: 0x00C0   | offset to table[7]
  +0x0074 | 14 00 00 00             | UOffset32  | 0x00000014 (20) Loc: 0x0088   | offset to table[8]

vtable (SunspecPointDef):
  +0x0078 | 10 00                   | uint16_t   | 0x0010 (16)                   | size of this vtable
  +0x007A | 12 00                   | uint16_t   | 0x0012 (18)                   | size of referring table
  +0x007C | 08 00                   | VOffset16  | 0x0008 (8)                    | offset to field `id` (id: 0)
  +0x007E | 05 00                   | VOffset16  | 0x0005 (5)                    | offset to field `data_type` (id: 1)
  +0x0080 | 0C 00                   | VOffset16  | 0x000C (12)                   | offset to field `data` (id: 2)
  +0x0082 | 00 00                   | VOffset16  | 0x0000 (0)                    | offset to field `count` (id: 3) <defaults to 1> (UShort)
  +0x0084 | 00 00                   | VOffset16  | 0x0000 (0)                    | offset to field `count_point_id` (id: 4) <null> (String)
  +0x0086 | 06 00                   | VOffset16  | 0x0006 (6)                    | offset to field `size` (id: 5)

table (SunspecPointDef):
  +0x0088 | 10 00 00 00             | SOffset32  | 0x00000010 (16) Loc: 0x0078   | offset to vtable
  +0x008C | 00                      | uint8_t[1] | .                             | padding
  +0x008D | 14                      | UType8     | 0x14 (20)                     | table field `data_type` (UType)
  +0x008E | 01 00                   | uint16_t   | 0x0001 (1)                    | table field `size` (UShort)
  +0x0090 | 0C 00 00 00             | UOffset32  | 0x0000000C (12) Loc: 0x009C   | offset to field `id` (string)
  +0x0094 | 06 00 00 00             | UOffset32  | 0x00000006 (6) Loc: 0x009A    | offset to field `data` (union of type `kPad16`)
  +0x0098 | 00 00                   | uint8_t[2] | ..                            | padding

union (kPad16.data):
  +0x009A | 00 80                   | uint16_t   | 0x8000 (32768)                | struct field `data.value` of 'kPad16' (UShort)

string (SunspecPointDef.id):
  +0x009C | 03 00 00 00             | uint32_t   | 0x00000003 (3)                | length of string
  +0x00A0 | 50 61 64                | char[3]    | Pad                           | string literal
  +0x00A3 | 00                      | char       | 0x00 (0)                      | string terminator

vtable (SunspecPointDef):
  +0x00A4 | 1C 00                   | uint16_t   | 0x001C (28)                   | size of this vtable
  +0x00A6 | 14 00                   | uint16_t   | 0x0014 (20)                   | size of referring table
  +0x00A8 | 08 00                   | VOffset16  | 0x0008 (8)                    | offset to field `id` (id: 0)
  +0x00AA | 04 00                   | VOffset16  | 0x0004 (4)                    | offset to field `data_type` (id: 1)
  +0x00AC | 0C 00                   | VOffset16  | 0x000C (12)                   | offset to field `data` (id: 2)
  +0x00AE | 00 00                   | VOffset16  | 0x0000 (0)                    | offset to field `count` (id: 3) <defaults to 1> (UShort)
  +0x00B0 | 00 00                   | VOffset16  | 0x0000 (0)                    | offset to field `count_point_id` (id: 4) <null> (String)
  +0x00B2 | 06 00                   | VOffset16  | 0x0006 (6)                    | offset to field `size` (id: 5)
  +0x00B4 | 00 00                   | VOffset16  | 0x0000 (0)                    | offset to field `sf` (id: 6) <defaults to 0> (Short)
  +0x00B6 | 00 00                   | VOffset16  | 0x0000 (0)                    | offset to field `sf_id` (id: 7) <null> (String)
  +0x00B8 | 00 00                   | VOffset16  | 0x0000 (0)                    | offset to field `units` (id: 8) <null> (String)
  +0x00BA | 05 00                   | VOffset16  | 0x0005 (5)                    | offset to field `access` (id: 9)
  +0x00BC | 00 00                   | VOffset16  | 0x0000 (0)                    | offset to field `mandatory` (id: 10) <defaults to 1> (UByte)
  +0x00BE | 10 00                   | VOffset16  | 0x0010 (16)                   | offset to field `label` (id: 11)

table (SunspecPointDef):
  +0x00C0 | 1C 00 00 00             | SOffset32  | 0x0000001C (28) Loc: 0x00A4   | offset to vtable
  +0x00C4 | 05                      | UType8     | 0x05 (5)                      | table field `data_type` (UType)
  +0x00C5 | 01                      | uint8_t    | 0x01 (1)                      | table field `access` (UByte)
  +0x00C6 | 01 00                   | uint16_t   | 0x0001 (1)                    | table field `size` (UShort)
  +0x00C8 | 24 00 00 00             | UOffset32  | 0x00000024 (36) Loc: 0x00EC   | offset to field `id` (string)
  +0x00CC | 1E 00 00 00             | UOffset32  | 0x0000001E (30) Loc: 0x00EA   | offset to field `data` (union of type `kUint16`)
  +0x00D0 | 04 00 00 00             | UOffset32  | 0x00000004 (4) Loc: 0x00D4    | offset to field `label` (string)

string (SunspecPointDef.label):
  +0x00D4 | 0E 00 00 00             | uint32_t   | 0x0000000E (14)               | length of string
  +0x00D8 | 44 65 76 69 63 65 20 41 | char[14]   | Device A                      | string literal
  +0x00E0 | 64 64 72 65 73 73       |            | ddress
  +0x00E6 | 00                      | char       | 0x00 (0)                      | string terminator

padding:
  +0x00E7 | 00 00 00                | uint8_t[3] | ...                           | padding

union (kUint16.data):
  +0x00EA | FF FF                   | uint16_t   | 0xFFFF (65535)                | struct field `data.value` of 'kUint16' (UShort)

string (SunspecPointDef.id):
  +0x00EC | 02 00 00 00             | uint32_t   | 0x00000002 (2)                | length of string
  +0x00F0 | 44 41                   | char[2]    | DA                            | string literal
  +0x00F2 | 00                      | char       | 0x00 (0)                      | string terminator

table (SunspecPointDef):
  +0x00F4 | C4 FE FF FF             | SOffset32  | 0xFFFFFEC4 (-316) Loc: 0x0230 | offset to vtable
  +0x00F8 | 12                      | UType8     | 0x12 (18)                     | table field `data_type` (UType)
  +0x00F9 | 00                      | uint8_t    | 0x00 (0)                      | table field `mandatory` (UByte)
  +0x00FA | 10 00                   | uint16_t   | 0x0010 (16)                   | table field `size` (UShort)
  +0x00FC | 24 00 00 00             | UOffset32  | 0x00000024 (36) Loc: 0x0120   | offset to field `id` (string)
  +0x0100 | 1C 00 00 00             | UOffset32  | 0x0000001C (28) Loc: 0x011C   | offset to field `data` (union of type `kStringx`)
  +0x0104 | 04 00 00 00             | UOffset32  | 0x00000004 (4) Loc: 0x0108    | offset to field `label` (string)

string (SunspecPointDef.label):
  +0x0108 | 0D 00 00 00             | uint32_t   | 0x0000000D (13)               | length of string
  +0x010C | 53 65 72 69 61 6C 20 4E | char[13]   | Serial N                      | string literal
  +0x0114 | 75 6D 62 65 72          |            | umber
  +0x0119 | 00                      | char       | 0x00 (0)                      | string terminator

padding:
  +0x011A | 00 00                   | uint8_t[2] | ..                            | padding

table (kStringx):
  +0x011C | 2C FF FF FF             | SOffset32  | 0xFFFFFF2C (-212) Loc: 0x01F0 | offset to vtable

string (SunspecPointDef.id):
  +0x0120 | 02 00 00 00             | uint32_t   | 0x00000002 (2)                | length of string
  +0x0124 | 53 4E                   | char[2]    | SN                            | string literal
  +0x0126 | 00                      | char       | 0x00 (0)                      | string terminator

table (SunspecPointDef):
  +0x0128 | D4 FF FF FF             | SOffset32  | 0xFFFFFFD4 (-44) Loc: 0x0154  | offset to vtable
  +0x012C | 00                      | uint8_t[1] | .                             | padding
  +0x012D | 12                      | UType8     | 0x12 (18)                     | table field `data_type` (UType)
  +0x012E | 08 00                   | uint16_t   | 0x0008 (8)                    | table field `size` (UShort)
  +0x0130 | 1C 00 00 00             | UOffset32  | 0x0000001C (28) Loc: 0x014C   | offset to field `id` (string)
  +0x0134 | 14 00 00 00             | UOffset32  | 0x00000014 (20) Loc: 0x0148   | offset to field `data` (union of type `kStringx`)
  +0x0138 | 04 00 00 00             | UOffset32  | 0x00000004 (4) Loc: 0x013C    | offset to field `label` (string)

string (SunspecPointDef.label):
  +0x013C | 07 00 00 00             | uint32_t   | 0x00000007 (7)                | length of string
  +0x0140 | 56 65 72 73 69 6F 6E    | char[7]    | Version                       | string literal
  +0x0147 | 00                      | char       | 0x00 (0)                      | string terminator

table (kStringx):
  +0x0148 | 58 FF FF FF             | SOffset32  | 0xFFFFFF58 (-168) Loc: 0x01F0 | offset to vtable

string (SunspecPointDef.id):
  +0x014C | 02 00 00 00             | uint32_t   | 0x00000002 (2)                | length of string
  +0x0150 | 56 72                   | char[2]    | Vr                            | string literal
  +0x0152 | 00                      | char       | 0x00 (0)                      | string terminator

vtable (SunspecPointDef):
  +0x0154 | 1C 00                   | uint16_t   | 0x001C (28)                   | size of this vtable
  +0x0156 | 14 00                   | uint16_t   | 0x0014 (20)                   | size of referring table
  +0x0158 | 08 00                   | VOffset16  | 0x0008 (8)                    | offset to field `id` (id: 0)
  +0x015A | 05 00                   | VOffset16  | 0x0005 (5)                    | offset to field `data_type` (id: 1)
  +0x015C | 0C 00                   | VOffset16  | 0x000C (12)                   | offset to field `data` (id: 2)
  +0x015E | 00 00                   | VOffset16  | 0x0000 (0)                    | offset to field `count` (id: 3) <defaults to 1> (UShort)
  +0x0160 | 00 00                   | VOffset16  | 0x0000 (0)                    | offset to field `count_point_id` (id: 4) <null> (String)
  +0x0162 | 06 00                   | VOffset16  | 0x0006 (6)                    | offset to field `size` (id: 5)
  +0x0164 | 00 00                   | VOffset16  | 0x0000 (0)                    | offset to field `sf` (id: 6) <defaults to 0> (Short)
  +0x0166 | 00 00                   | VOffset16  | 0x0000 (0)                    | offset to field `sf_id` (id: 7) <null> (String)
  +0x0168 | 00 00                   | VOffset16  | 0x0000 (0)                    | offset to field `units` (id: 8) <null> (String)
  +0x016A | 00 00                   | VOffset16  | 0x0000 (0)                    | offset to field `access` (id: 9) <defaults to 0> (UByte)
  +0x016C | 00 00                   | VOffset16  | 0x0000 (0)                    | offset to field `mandatory` (id: 10) <defaults to 1> (UByte)
  +0x016E | 10 00                   | VOffset16  | 0x0010 (16)                   | offset to field `label` (id: 11)

table (SunspecPointDef):
  +0x0170 | 1C 00 00 00             | SOffset32  | 0x0000001C (28) Loc: 0x0154   | offset to vtable
  +0x0174 | 00                      | uint8_t[1] | .                             | padding
  +0x0175 | 12                      | UType8     | 0x12 (18)                     | table field `data_type` (UType)
  +0x0176 | 08 00                   | uint16_t   | 0x0008 (8)                    | table field `size` (UShort)
  +0x0178 | 1C 00 00 00             | UOffset32  | 0x0000001C (28) Loc: 0x0194   | offset to field `id` (string)
  +0x017C | 14 00 00 00             | UOffset32  | 0x00000014 (20) Loc: 0x0190   | offset to field `data` (union of type `kStringx`)
  +0x0180 | 04 00 00 00             | UOffset32  | 0x00000004 (4) Loc: 0x0184    | offset to field `label` (string)

string (SunspecPointDef.label):
  +0x0184 | 07 00 00 00             | uint32_t   | 0x00000007 (7)                | length of string
  +0x0188 | 4F 70 74 69 6F 6E 73    | char[7]    | Options                       | string literal
  +0x018F | 00                      | char       | 0x00 (0)                      | string terminator

table (kStringx):
  +0x0190 | A0 FF FF FF             | SOffset32  | 0xFFFFFFA0 (-96) Loc: 0x01F0  | offset to vtable

string (SunspecPointDef.id):
  +0x0194 | 03 00 00 00             | uint32_t   | 0x00000003 (3)                | length of string
  +0x0198 | 4F 70 74                | char[3]    | Opt                           | string literal
  +0x019B | 00                      | char       | 0x00 (0)                      | string terminator

table (SunspecPointDef):
  +0x019C | 6C FF FF FF             | SOffset32  | 0xFFFFFF6C (-148) Loc: 0x0230 | offset to vtable
  +0x01A0 | 12                      | UType8     | 0x12 (18)                     | table field `data_type` (UType)
  +0x01A1 | 00                      | uint8_t    | 0x00 (0)                      | table field `mandatory` (UByte)
  +0x01A2 | 10 00                   | uint16_t   | 0x0010 (16)                   | table field `size` (UShort)
  +0x01A4 | 1C 00 00 00             | UOffset32  | 0x0000001C (28) Loc: 0x01C0   | offset to field `id` (string)
  +0x01A8 | 14 00 00 00             | UOffset32  | 0x00000014 (20) Loc: 0x01BC   | offset to field `data` (union of type `kStringx`)
  +0x01AC | 04 00 00 00             | UOffset32  | 0x00000004 (4) Loc: 0x01B0    | offset to field `label` (string)

string (SunspecPointDef.label):
  +0x01B0 | 05 00 00 00             | uint32_t   | 0x00000005 (5)                | length of string
  +0x01B4 | 4D 6F 64 65 6C          | char[5]    | Model                         | string literal
  +0x01B9 | 00                      | char       | 0x00 (0)                      | string terminator

padding:
  +0x01BA | 00 00                   | uint8_t[2] | ..                            | padding

table (kStringx):
  +0x01BC | CC FF FF FF             | SOffset32  | 0xFFFFFFCC (-52) Loc: 0x01F0  | offset to vtable

string (SunspecPointDef.id):
  +0x01C0 | 02 00 00 00             | uint32_t   | 0x00000002 (2)                | length of string
  +0x01C4 | 4D 64                   | char[2]    | Md                            | string literal
  +0x01C6 | 00                      | char       | 0x00 (0)                      | string terminator

table (SunspecPointDef):
  +0x01C8 | 98 FF FF FF             | SOffset32  | 0xFFFFFF98 (-104) Loc: 0x0230 | offset to vtable
  +0x01CC | 12                      | UType8     | 0x12 (18)                     | table field `data_type` (UType)
  +0x01CD | 00                      | uint8_t    | 0x00 (0)                      | table field `mandatory` (UByte)
  +0x01CE | 10 00                   | uint16_t   | 0x0010 (16)                   | table field `size` (UShort)
  +0x01D0 | 28 00 00 00             | UOffset32  | 0x00000028 (40) Loc: 0x01F8   | offset to field `id` (string)
  +0x01D4 | 20 00 00 00             | UOffset32  | 0x00000020 (32) Loc: 0x01F4   | offset to field `data` (union of type `kStringx`)
  +0x01D8 | 04 00 00 00             | UOffset32  | 0x00000004 (4) Loc: 0x01DC    | offset to field `label` (string)

string (SunspecPointDef.label):
  +0x01DC | 0C 00 00 00             | uint32_t   | 0x0000000C (12)               | length of string
  +0x01E0 | 4D 61 6E 75 66 61 63 74 | char[12]   | Manufact                      | string literal
  +0x01E8 | 75 72 65 72             |            | urer
  +0x01EC | 00                      | char       | 0x00 (0)                      | string terminator

padding:
  +0x01ED | 00 00 00                | uint8_t[3] | ...                           | padding

vtable (kStringx):
  +0x01F0 | 04 00                   | uint16_t   | 0x0004 (4)                    | size of this vtable
  +0x01F2 | 04 00                   | uint16_t   | 0x0004 (4)                    | size of referring table

table (kStringx):
  +0x01F4 | 04 00 00 00             | SOffset32  | 0x00000004 (4) Loc: 0x01F0    | offset to vtable

string (SunspecPointDef.id):
  +0x01F8 | 02 00 00 00             | uint32_t   | 0x00000002 (2)                | length of string
  +0x01FC | 4D 6E                   | char[2]    | Mn                            | string literal
  +0x01FE | 00                      | char       | 0x00 (0)                      | string terminator

table (SunspecPointDef):
  +0x0200 | D0 FF FF FF             | SOffset32  | 0xFFFFFFD0 (-48) Loc: 0x0230  | offset to vtable
  +0x0204 | 05                      | UType8     | 0x05 (5)                      | table field `data_type` (UType)
  +0x0205 | 00                      | uint8_t    | 0x00 (0)                      | table field `mandatory` (UByte)
  +0x0206 | 01 00                   | uint16_t   | 0x0001 (1)                    | table field `size` (UShort)
  +0x0208 | 20 00 00 00             | UOffset32  | 0x00000020 (32) Loc: 0x0228   | offset to field `id` (string)
  +0x020C | 1A 00 00 00             | UOffset32  | 0x0000001A (26) Loc: 0x0226   | offset to field `data` (union of type `kUint16`)
  +0x0210 | 04 00 00 00             | UOffset32  | 0x00000004 (4) Loc: 0x0214    | offset to field `label` (string)

string (SunspecPointDef.label):
  +0x0214 | 0C 00 00 00             | uint32_t   | 0x0000000C (12)               | length of string
  +0x0218 | 4D 6F 64 65 6C 20 4C 65 | char[12]   | Model Le                      | string literal
  +0x0220 | 6E 67 74 68             |            | ngth
  +0x0224 | 00                      | char       | 0x00 (0)                      | string terminator

union (kUint16.data):
  +0x0226 | FF FF                   | uint16_t   | 0xFFFF (65535)                | struct field `data.value` of 'kUint16' (UShort)

string (SunspecPointDef.id):
  +0x0228 | 01 00 00 00             | uint32_t   | 0x00000001 (1)                | length of string
  +0x022C | 4C                      | char[1]    | L                             | string literal
  +0x022D | 00                      | char       | 0x00 (0)                      | string terminator

padding:
  +0x022E | 00 00                   | uint8_t[2] | ..                            | padding

vtable (SunspecPointDef):
  +0x0230 | 1C 00                   | uint16_t   | 0x001C (28)                   | size of this vtable
  +0x0232 | 14 00                   | uint16_t   | 0x0014 (20)                   | size of referring table
  +0x0234 | 08 00                   | VOffset16  | 0x0008 (8)                    | offset to field `id` (id: 0)
  +0x0236 | 04 00                   | VOffset16  | 0x0004 (4)                    | offset to field `data_type` (id: 1)
  +0x0238 | 0C 00                   | VOffset16  | 0x000C (12)                   | offset to field `data` (id: 2)
  +0x023A | 00 00                   | VOffset16  | 0x0000 (0)                    | offset to field `count` (id: 3) <defaults to 1> (UShort)
  +0x023C | 00 00                   | VOffset16  | 0x0000 (0)                    | offset to field `count_point_id` (id: 4) <null> (String)
  +0x023E | 06 00                   | VOffset16  | 0x0006 (6)                    | offset to field `size` (id: 5)
  +0x0240 | 00 00                   | VOffset16  | 0x0000 (0)                    | offset to field `sf` (id: 6) <defaults to 0> (Short)
  +0x0242 | 00 00                   | VOffset16  | 0x0000 (0)                    | offset to field `sf_id` (id: 7) <null> (String)
  +0x0244 | 00 00                   | VOffset16  | 0x0000 (0)                    | offset to field `units` (id: 8) <null> (String)
  +0x0246 | 00 00                   | VOffset16  | 0x0000 (0)                    | offset to field `access` (id: 9) <defaults to 0> (UByte)
  +0x0248 | 05 00                   | VOffset16  | 0x0005 (5)                    | offset to field `mandatory` (id: 10)
  +0x024A | 10 00                   | VOffset16  | 0x0010 (16)                   | offset to field `label` (id: 11)

table (SunspecPointDef):
  +0x024C | 1C 00 00 00             | SOffset32  | 0x0000001C (28) Loc: 0x0230   | offset to vtable
  +0x0250 | 05                      | UType8     | 0x05 (5)                      | table field `data_type` (UType)
  +0x0251 | 00                      | uint8_t    | 0x00 (0)                      | table field `mandatory` (UByte)
  +0x0252 | 01 00                   | uint16_t   | 0x0001 (1)                    | table field `size` (UShort)
  +0x0254 | 1C 00 00 00             | UOffset32  | 0x0000001C (28) Loc: 0x0270   | offset to field `id` (string)
  +0x0258 | 16 00 00 00             | UOffset32  | 0x00000016 (22) Loc: 0x026E   | offset to field `data` (union of type `kUint16`)
  +0x025C | 04 00 00 00             | UOffset32  | 0x00000004 (4) Loc: 0x0260    | offset to field `label` (string)

string (SunspecPointDef.label):
  +0x0260 | 08 00 00 00             | uint32_t   | 0x00000008 (8)                | length of string
  +0x0264 | 4D 6F 64 65 6C 20 49 44 | char[8]    | Model ID                      | string literal
  +0x026C | 00                      | char       | 0x00 (0)                      | string terminator

union (kUint16.data):
  +0x026E | 01 00                   | uint16_t   | 0x0001 (1)                    | struct field `data.value` of 'kUint16' (UShort)

string (SunspecPointDef.id):
  +0x0270 | 02 00 00 00             | uint32_t   | 0x00000002 (2)                | length of string
  +0x0274 | 49 44                   | char[2]    | ID                            | string literal
  +0x0276 | 00                      | char       | 0x00 (0)                      | string terminator

string (SunspecGroupPointDef.id):
  +0x0278 | 06 00 00 00             | uint32_t   | 0x00000006 (6)                | length of string
  +0x027C | 63 6F 6D 6D 6F 6E       | char[6]    | common                        | string literal
  +0x0282 | 00                      | char       | 0x00 (0)                      | string terminator
